target datalayout = "e-m:e-p270:32:32-p271:32:32-p272:64:64-i64:64-i128:128-f80:128-n8:16:32:64-S128"
target triple = "x86_64-pc-linux-gnu"

%"class.std::__cxx11::basic_string" = type { %"struct.std::__cxx11::basic_string<char>::_Alloc_hider", i64, %union.anon }
%"struct.std::__cxx11::basic_string<char>::_Alloc_hider" = type { ptr }
%union.anon = type { i64, [8 x i8] }
%"class.std::allocator" = type { i8 }
%"class.cv::Mat" = type { i32, i32, i32, i32, ptr, ptr, ptr, ptr, ptr, ptr, %"struct.cv::MatSize", %"struct.cv::MatStep" }
%"struct.cv::MatSize" = type { ptr }
%"struct.cv::MatStep" = type { ptr, [2 x i64] }

@.str.1 = private unnamed_addr constant [119 x i8] c"generated/home/dtcxzyw/WorkSpace/Projects/compilers/llvm-opt-benchmark/bench/opencv/opencv/modules/core/src/matrix.cpp\00", align 1
@__func__._ZN2cv3MatC2EiiiPvm = private unnamed_addr constant [4 x i8] c"Mat\00", align 1
@.str.15 = private unnamed_addr constant [23 x i8] c"m.step.p != m.step.buf\00", align 1

; Function Attrs: mustprogress nounwind uwtable
define linkonce_odr hidden void @_ZNSt15__new_allocatorIcEC2Ev(ptr noundef nonnull align 1 dereferenceable(1) %0) unnamed_addr #0 comdat align 2 {
  %2 = alloca ptr, align 8
  store ptr %0, ptr %2, align 8, !tbaa !169
  ret void
}

; Function Attrs: mustprogress nounwind uwtable
define available_externally void @_ZNSaIcEC2Ev(ptr noundef nonnull align 1 dereferenceable(1) %0) unnamed_addr #0 align 2 {
  %2 = alloca ptr, align 8
  store ptr %0, ptr %2, align 8, !tbaa !43
  %3 = load ptr, ptr %2, align 8
  call void @_ZNSt15__new_allocatorIcEC2Ev(ptr noundef nonnull align 1 dereferenceable(1) %3) #7
  ret void
}

; Function Attrs: inlinehint mustprogress nounwind uwtable
define linkonce_odr hidden noundef nonnull align 8 dereferenceable(8) ptr @_ZN2cv7MatStepixEi(ptr noundef nonnull align 8 dereferenceable(24) %0, i32 noundef %1) #6 comdat align 2 {
  %3 = alloca ptr, align 8
  %4 = alloca i32, align 4
  store ptr %0, ptr %3, align 8, !tbaa !83
  store i32 %1, ptr %4, align 4, !tbaa !26
  %5 = load ptr, ptr %3, align 8
  %6 = getelementptr inbounds nuw %"struct.cv::MatStep", ptr %5, i32 0, i32 0
  %7 = load ptr, ptr %6, align 8, !tbaa !85
  %8 = load i32, ptr %4, align 4, !tbaa !26
  %9 = sext i32 %8 to i64
  %10 = getelementptr inbounds i64, ptr %7, i64 %9
  ret ptr %10
}

; Function Attrs: inlinehint mustprogress nounwind uwtable
define linkonce_odr hidden void @_ZN2cv7MatStepC2Ev(ptr noundef nonnull align 8 dereferenceable(24) %0) unnamed_addr #6 comdat align 2 {
  %2 = alloca ptr, align 8
  store ptr %0, ptr %2, align 8, !tbaa !83
  %3 = load ptr, ptr %2, align 8
  %4 = getelementptr inbounds nuw %"struct.cv::MatStep", ptr %3, i32 0, i32 1
  %5 = getelementptr inbounds [2 x i64], ptr %4, i64 0, i64 0
  %6 = getelementptr inbounds nuw %"struct.cv::MatStep", ptr %3, i32 0, i32 0
  store ptr %5, ptr %6, align 8, !tbaa !85
  %7 = getelementptr inbounds nuw %"struct.cv::MatStep", ptr %3, i32 0, i32 0
  %8 = load ptr, ptr %7, align 8, !tbaa !85
  %9 = getelementptr inbounds i64, ptr %8, i64 1
  store i64 0, ptr %9, align 8, !tbaa !31
  %10 = getelementptr inbounds nuw %"struct.cv::MatStep", ptr %3, i32 0, i32 0
  %11 = load ptr, ptr %10, align 8, !tbaa !85
  %12 = getelementptr inbounds i64, ptr %11, i64 0
  store i64 0, ptr %12, align 8, !tbaa !31
  ret void
}

; Function Attrs: inlinehint mustprogress nounwind uwtable
define linkonce_odr hidden void @_ZN2cv7MatSizeC2EPi(ptr noundef nonnull align 8 dereferenceable(8) %0, ptr noundef %1) unnamed_addr #6 comdat align 2 {
  %3 = alloca ptr, align 8
  %4 = alloca ptr, align 8
  store ptr %0, ptr %3, align 8, !tbaa !65
  store ptr %1, ptr %4, align 8, !tbaa !71
  %5 = load ptr, ptr %3, align 8
  %6 = getelementptr inbounds nuw %"struct.cv::MatSize", ptr %5, i32 0, i32 0
  %7 = load ptr, ptr %4, align 8, !tbaa !71
  store ptr %7, ptr %6, align 8, !tbaa !67
  ret void
}

; Function Attrs: mustprogress nounwind uwtable
define void @_ZN2cv3MatC2EOS0_(ptr noundef nonnull align 8 dereferenceable(96) %0, ptr noundef nonnull align 8 dereferenceable(96) %1) unnamed_addr #0 align 2 personality ptr @__gxx_personality_v0 {
  %3 = alloca ptr, align 8
  %4 = alloca ptr, align 8
  %5 = alloca %"class.std::__cxx11::basic_string", align 8
  %6 = alloca %"class.std::allocator", align 1
  store ptr %0, ptr %3, align 8, !tbaa !34
  store ptr %1, ptr %4, align 8, !tbaa !34
  %7 = load ptr, ptr %3, align 8
  %8 = getelementptr inbounds nuw %"class.cv::Mat", ptr %7, i32 0, i32 0
  %9 = load ptr, ptr %4, align 8, !tbaa !34
  %10 = getelementptr inbounds nuw %"class.cv::Mat", ptr %9, i32 0, i32 0
  %11 = load i32, ptr %10, align 8, !tbaa !79
  store i32 %11, ptr %8, align 8, !tbaa !79
  %12 = getelementptr inbounds nuw %"class.cv::Mat", ptr %7, i32 0, i32 1
  %13 = load ptr, ptr %4, align 8, !tbaa !34
  %14 = getelementptr inbounds nuw %"class.cv::Mat", ptr %13, i32 0, i32 1
  %15 = load i32, ptr %14, align 4, !tbaa !72
  store i32 %15, ptr %12, align 4, !tbaa !72
  %16 = getelementptr inbounds nuw %"class.cv::Mat", ptr %7, i32 0, i32 2
  %17 = load ptr, ptr %4, align 8, !tbaa !34
  %18 = getelementptr inbounds nuw %"class.cv::Mat", ptr %17, i32 0, i32 2
  %19 = load i32, ptr %18, align 8, !tbaa !78
  store i32 %19, ptr %16, align 8, !tbaa !78
  %20 = getelementptr inbounds nuw %"class.cv::Mat", ptr %7, i32 0, i32 3
  %21 = load ptr, ptr %4, align 8, !tbaa !34
  %22 = getelementptr inbounds nuw %"class.cv::Mat", ptr %21, i32 0, i32 3
  %23 = load i32, ptr %22, align 4, !tbaa !77
  store i32 %23, ptr %20, align 4, !tbaa !77
  %24 = getelementptr inbounds nuw %"class.cv::Mat", ptr %7, i32 0, i32 4
  %25 = load ptr, ptr %4, align 8, !tbaa !34
  %26 = getelementptr inbounds nuw %"class.cv::Mat", ptr %25, i32 0, i32 4
  %27 = load ptr, ptr %26, align 8, !tbaa !89
  store ptr %27, ptr %24, align 8, !tbaa !89
  %28 = getelementptr inbounds nuw %"class.cv::Mat", ptr %7, i32 0, i32 5
  %29 = load ptr, ptr %4, align 8, !tbaa !34
  %30 = getelementptr inbounds nuw %"class.cv::Mat", ptr %29, i32 0, i32 5
  %31 = load ptr, ptr %30, align 8, !tbaa !90
  store ptr %31, ptr %28, align 8, !tbaa !90
  %32 = getelementptr inbounds nuw %"class.cv::Mat", ptr %7, i32 0, i32 6
  %33 = load ptr, ptr %4, align 8, !tbaa !34
  %34 = getelementptr inbounds nuw %"class.cv::Mat", ptr %33, i32 0, i32 6
  %35 = load ptr, ptr %34, align 8, !tbaa !92
  store ptr %35, ptr %32, align 8, !tbaa !92
  %36 = getelementptr inbounds nuw %"class.cv::Mat", ptr %7, i32 0, i32 7
  %37 = load ptr, ptr %4, align 8, !tbaa !34
  %38 = getelementptr inbounds nuw %"class.cv::Mat", ptr %37, i32 0, i32 7
  %39 = load ptr, ptr %38, align 8, !tbaa !91
  store ptr %39, ptr %36, align 8, !tbaa !91
  %40 = getelementptr inbounds nuw %"class.cv::Mat", ptr %7, i32 0, i32 8
  %41 = load ptr, ptr %4, align 8, !tbaa !34
  %42 = getelementptr inbounds nuw %"class.cv::Mat", ptr %41, i32 0, i32 8
  %43 = load ptr, ptr %42, align 8, !tbaa !94
  store ptr %43, ptr %40, align 8, !tbaa !94
  %44 = getelementptr inbounds nuw %"class.cv::Mat", ptr %7, i32 0, i32 9
  %45 = load ptr, ptr %4, align 8, !tbaa !34
  %46 = getelementptr inbounds nuw %"class.cv::Mat", ptr %45, i32 0, i32 9
  %47 = load ptr, ptr %46, align 8, !tbaa !88
  store ptr %47, ptr %44, align 8, !tbaa !88
  %48 = getelementptr inbounds nuw %"class.cv::Mat", ptr %7, i32 0, i32 10
  %49 = getelementptr inbounds nuw %"class.cv::Mat", ptr %7, i32 0, i32 2
  call void @_ZN2cv7MatSizeC2EPi(ptr noundef nonnull align 8 dereferenceable(8) %48, ptr noundef %49) #7
  %50 = getelementptr inbounds nuw %"class.cv::Mat", ptr %7, i32 0, i32 11
  call void @_ZN2cv7MatStepC2Ev(ptr noundef nonnull align 8 dereferenceable(24) %50) #7
  %51 = load ptr, ptr %4, align 8, !tbaa !34
  %52 = getelementptr inbounds nuw %"class.cv::Mat", ptr %51, i32 0, i32 1
  %53 = load i32, ptr %52, align 4, !tbaa !72
  %54 = icmp sle i32 %53, 2
  br i1 %54, label %55, label %68

55:                                               ; preds = %2
  %56 = load ptr, ptr %4, align 8, !tbaa !34
  %57 = getelementptr inbounds nuw %"class.cv::Mat", ptr %56, i32 0, i32 11
  %58 = call noundef nonnull align 8 dereferenceable(8) ptr @_ZN2cv7MatStepixEi(ptr noundef nonnull align 8 dereferenceable(24) %57, i32 noundef 0) #7
  %59 = load i64, ptr %58, align 8, !tbaa !31
  %60 = getelementptr inbounds nuw %"class.cv::Mat", ptr %7, i32 0, i32 11
  %61 = call noundef nonnull align 8 dereferenceable(8) ptr @_ZN2cv7MatStepixEi(ptr noundef nonnull align 8 dereferenceable(24) %60, i32 noundef 0) #7
  store i64 %59, ptr %61, align 8, !tbaa !31
  %62 = load ptr, ptr %4, align 8, !tbaa !34
  %63 = getelementptr inbounds nuw %"class.cv::Mat", ptr %62, i32 0, i32 11
  %64 = call noundef nonnull align 8 dereferenceable(8) ptr @_ZN2cv7MatStepixEi(ptr noundef nonnull align 8 dereferenceable(24) %63, i32 noundef 1) #7
  %65 = load i64, ptr %64, align 8, !tbaa !31
  %66 = getelementptr inbounds nuw %"class.cv::Mat", ptr %7, i32 0, i32 11
  %67 = call noundef nonnull align 8 dereferenceable(8) ptr @_ZN2cv7MatStepixEi(ptr noundef nonnull align 8 dereferenceable(24) %66, i32 noundef 1) #7
  store i64 %65, ptr %67, align 8, !tbaa !31
  br label %110

68:                                               ; preds = %2
  br label %69

69:                                               ; preds = %68
  %70 = load ptr, ptr %4, align 8, !tbaa !34
  %71 = getelementptr inbounds nuw %"class.cv::Mat", ptr %70, i32 0, i32 11
  %72 = getelementptr inbounds nuw %"struct.cv::MatStep", ptr %71, i32 0, i32 0
  %73 = load ptr, ptr %72, align 8, !tbaa !75
  %74 = load ptr, ptr %4, align 8, !tbaa !34
  %75 = getelementptr inbounds nuw %"class.cv::Mat", ptr %74, i32 0, i32 11
  %76 = getelementptr inbounds nuw %"struct.cv::MatStep", ptr %75, i32 0, i32 1
  %77 = getelementptr inbounds [2 x i64], ptr %76, i64 0, i64 0
  %78 = icmp ne ptr %73, %77
  br i1 %78, label %79, label %80

79:                                               ; preds = %69
  br label %83

80:                                               ; preds = %69
  call void @llvm.lifetime.start.p0(i64 32, ptr %5) #7
  call void @llvm.lifetime.start.p0(i64 1, ptr %6) #7
  call void @_ZNSaIcEC2Ev(ptr noundef nonnull align 1 dereferenceable(1) %6) #7
  invoke void @_ZNSt7__cxx1112basic_stringIcSt11char_traitsIcESaIcEEC2EPKcRKS3_(ptr noundef nonnull align 8 dereferenceable(32) %5, ptr noundef @.str.15, ptr noundef nonnull align 1 dereferenceable(1) %6)
          to label %81 unwind label %131

81:                                               ; preds = %80
  invoke void @_ZN2cv5errorEiRKNSt7__cxx1112basic_stringIcSt11char_traitsIcESaIcEEEPKcS9_i(i32 noundef -215, ptr noundef nonnull align 8 dereferenceable(32) %5, ptr noundef @__func__._ZN2cv3MatC2EiiiPvm, ptr noundef @.str.1, i32 noundef 610) #17
          to label %82 unwind label %131

82:                                               ; preds = %81
  unreachable

83:                                               ; preds = %79
  br label %84

84:                                               ; preds = %83
  br label %85

85:                                               ; preds = %84
  %86 = load ptr, ptr %4, align 8, !tbaa !34
  %87 = getelementptr inbounds nuw %"class.cv::Mat", ptr %86, i32 0, i32 11
  %88 = getelementptr inbounds nuw %"struct.cv::MatStep", ptr %87, i32 0, i32 0
  %89 = load ptr, ptr %88, align 8, !tbaa !75
  %90 = getelementptr inbounds nuw %"class.cv::Mat", ptr %7, i32 0, i32 11
  %91 = getelementptr inbounds nuw %"struct.cv::MatStep", ptr %90, i32 0, i32 0
  store ptr %89, ptr %91, align 8, !tbaa !75
  %92 = load ptr, ptr %4, align 8, !tbaa !34
  %93 = getelementptr inbounds nuw %"class.cv::Mat", ptr %92, i32 0, i32 10
  %94 = getelementptr inbounds nuw %"struct.cv::MatSize", ptr %93, i32 0, i32 0
  %95 = load ptr, ptr %94, align 8, !tbaa !76
  %96 = getelementptr inbounds nuw %"class.cv::Mat", ptr %7, i32 0, i32 10
  %97 = getelementptr inbounds nuw %"struct.cv::MatSize", ptr %96, i32 0, i32 0
  store ptr %95, ptr %97, align 8, !tbaa !76
  %98 = load ptr, ptr %4, align 8, !tbaa !34
  %99 = getelementptr inbounds nuw %"class.cv::Mat", ptr %98, i32 0, i32 11
  %100 = getelementptr inbounds nuw %"struct.cv::MatStep", ptr %99, i32 0, i32 1
  %101 = getelementptr inbounds [2 x i64], ptr %100, i64 0, i64 0
  %102 = load ptr, ptr %4, align 8, !tbaa !34
  %103 = getelementptr inbounds nuw %"class.cv::Mat", ptr %102, i32 0, i32 11
  %104 = getelementptr inbounds nuw %"struct.cv::MatStep", ptr %103, i32 0, i32 0
  store ptr %101, ptr %104, align 8, !tbaa !75
  %105 = load ptr, ptr %4, align 8, !tbaa !34
  %106 = getelementptr inbounds nuw %"class.cv::Mat", ptr %105, i32 0, i32 2
  %107 = load ptr, ptr %4, align 8, !tbaa !34
  %108 = getelementptr inbounds nuw %"class.cv::Mat", ptr %107, i32 0, i32 10
  %109 = getelementptr inbounds nuw %"struct.cv::MatSize", ptr %108, i32 0, i32 0
  store ptr %106, ptr %109, align 8, !tbaa !76
  br label %110

110:                                              ; preds = %85, %55
  %111 = load ptr, ptr %4, align 8, !tbaa !34
  %112 = getelementptr inbounds nuw %"class.cv::Mat", ptr %111, i32 0, i32 0
  store i32 1124007936, ptr %112, align 8, !tbaa !79
  %113 = load ptr, ptr %4, align 8, !tbaa !34
  %114 = getelementptr inbounds nuw %"class.cv::Mat", ptr %113, i32 0, i32 3
  store i32 0, ptr %114, align 4, !tbaa !77
  %115 = load ptr, ptr %4, align 8, !tbaa !34
  %116 = getelementptr inbounds nuw %"class.cv::Mat", ptr %115, i32 0, i32 2
  store i32 0, ptr %116, align 8, !tbaa !78
  %117 = load ptr, ptr %4, align 8, !tbaa !34
  %118 = getelementptr inbounds nuw %"class.cv::Mat", ptr %117, i32 0, i32 1
  store i32 0, ptr %118, align 4, !tbaa !72
  %119 = load ptr, ptr %4, align 8, !tbaa !34
  %120 = getelementptr inbounds nuw %"class.cv::Mat", ptr %119, i32 0, i32 4
  store ptr null, ptr %120, align 8, !tbaa !89
  %121 = load ptr, ptr %4, align 8, !tbaa !34
  %122 = getelementptr inbounds nuw %"class.cv::Mat", ptr %121, i32 0, i32 5
  store ptr null, ptr %122, align 8, !tbaa !90
  %123 = load ptr, ptr %4, align 8, !tbaa !34
  %124 = getelementptr inbounds nuw %"class.cv::Mat", ptr %123, i32 0, i32 6
  store ptr null, ptr %124, align 8, !tbaa !92
  %125 = load ptr, ptr %4, align 8, !tbaa !34
  %126 = getelementptr inbounds nuw %"class.cv::Mat", ptr %125, i32 0, i32 7
  store ptr null, ptr %126, align 8, !tbaa !91
  %127 = load ptr, ptr %4, align 8, !tbaa !34
  %128 = getelementptr inbounds nuw %"class.cv::Mat", ptr %127, i32 0, i32 8
  store ptr null, ptr %128, align 8, !tbaa !94
  %129 = load ptr, ptr %4, align 8, !tbaa !34
  %130 = getelementptr inbounds nuw %"class.cv::Mat", ptr %129, i32 0, i32 9
  store ptr null, ptr %130, align 8, !tbaa !88
  ret void

131:                                              ; preds = %81, %80
  %132 = landingpad { ptr, i32 }
          catch ptr null
  %133 = extractvalue { ptr, i32 } %132, 0
  call void @__clang_call_terminate(ptr %133) #18
  unreachable
}