; Function Attrs: mustprogress nounwind uwtable
define void @_ZN2cv3MatC2EOS0_(ptr noundef nonnull align 8 dereferenceable(96) initializes((0, 64)) %0, ptr noundef nonnull align 8 dereferenceable(96) %1) unnamed_addr #9 align 2 personality ptr @__gxx_personality_v0 {
  %3 = alloca %"class.std::__cxx11::basic_string", align 8
  %4 = alloca %"class.std::allocator", align 1
  %5 = load i32, ptr %1, align 8, !tbaa !61
  store i32 %5, ptr %0, align 8, !tbaa !61
  %6 = getelementptr inbounds nuw i8, ptr %0, i64 4
  %7 = getelementptr inbounds nuw i8, ptr %1, i64 4
  %8 = load i32, ptr %7, align 4, !tbaa !53
  store i32 %8, ptr %6, align 4, !tbaa !53
  %9 = getelementptr inbounds nuw i8, ptr %0, i64 8
  %10 = getelementptr inbounds nuw i8, ptr %1, i64 8
  %11 = load i32, ptr %10, align 8, !tbaa !60
  store i32 %11, ptr %9, align 8, !tbaa !60
  %12 = getelementptr inbounds nuw i8, ptr %0, i64 12
  %13 = getelementptr inbounds nuw i8, ptr %1, i64 12
  %14 = load i32, ptr %13, align 4, !tbaa !59
  store i32 %14, ptr %12, align 4, !tbaa !59
  %15 = getelementptr inbounds nuw i8, ptr %0, i64 16
  %16 = getelementptr inbounds nuw i8, ptr %1, i64 16
  %17 = load ptr, ptr %16, align 8, !tbaa !67
  store ptr %17, ptr %15, align 8, !tbaa !67
  %18 = getelementptr inbounds nuw i8, ptr %0, i64 24
  %19 = getelementptr inbounds nuw i8, ptr %1, i64 24
  %20 = load ptr, ptr %19, align 8, !tbaa !68
  store ptr %20, ptr %18, align 8, !tbaa !68
  %21 = getelementptr inbounds nuw i8, ptr %0, i64 32
  %22 = getelementptr inbounds nuw i8, ptr %1, i64 32
  %23 = load ptr, ptr %22, align 8, !tbaa !70
  store ptr %23, ptr %21, align 8, !tbaa !70
  %24 = getelementptr inbounds nuw i8, ptr %0, i64 40
  %25 = getelementptr inbounds nuw i8, ptr %1, i64 40
  %26 = load ptr, ptr %25, align 8, !tbaa !69
  store ptr %26, ptr %24, align 8, !tbaa !69
  %27 = getelementptr inbounds nuw i8, ptr %0, i64 48
  %28 = getelementptr inbounds nuw i8, ptr %1, i64 48
  %29 = load ptr, ptr %28, align 8, !tbaa !74
  store ptr %29, ptr %27, align 8, !tbaa !74
  %30 = getelementptr inbounds nuw i8, ptr %0, i64 56
  %31 = getelementptr inbounds nuw i8, ptr %1, i64 56
  %32 = load ptr, ptr %31, align 8, !tbaa !66
  store ptr %32, ptr %30, align 8, !tbaa !66
  %33 = getelementptr inbounds nuw i8, ptr %0, i64 64
  store ptr %9, ptr %33, align 8, !tbaa !49
  %34 = getelementptr inbounds nuw i8, ptr %0, i64 72
  %35 = getelementptr inbounds nuw i8, ptr %0, i64 80
  store ptr %35, ptr %34, align 8, !tbaa !63
  tail call void @llvm.memset.p0.i64(ptr noundef nonnull align 8 dereferenceable(16) %35, i8 0, i64 16, i1 false)
  %36 = load i32, ptr %7, align 4, !tbaa !53
  %37 = icmp slt i32 %36, 3
  %38 = getelementptr inbounds nuw i8, ptr %1, i64 72
  %39 = load ptr, ptr %38, align 8, !tbaa !63
  br i1 %37, label %40, label %45

40:                                               ; preds = %2
  %41 = load i64, ptr %39, align 8, !tbaa !22
  store i64 %41, ptr %35, align 8, !tbaa !22
  %42 = getelementptr inbounds nuw i8, ptr %39, i64 8
  %43 = load i64, ptr %42, align 8, !tbaa !22
  %44 = getelementptr inbounds nuw i8, ptr %0, i64 88
  store i64 %43, ptr %44, align 8, !tbaa !22
  br label %53

45:                                               ; preds = %2
  %46 = getelementptr inbounds nuw i8, ptr %1, i64 80
  %.not = icmp eq ptr %39, %46
  br i1 %.not, label %47, label %50

47:                                               ; preds = %45
  call void @llvm.lifetime.start.p0(i64 32, ptr nonnull %3) #24
  call void @llvm.lifetime.start.p0(i64 1, ptr nonnull %4) #24
  invoke void @_ZNSt7__cxx1112basic_stringIcSt11char_traitsIcESaIcEEC2EPKcRKS3_(ptr noundef nonnull align 8 dereferenceable(32) %3, ptr noundef nonnull @.str.15, ptr noundef nonnull align 1 dereferenceable(1) %4)
          to label %48 unwind label %54

48:                                               ; preds = %47
  invoke void @_ZN2cv5errorEiRKNSt7__cxx1112basic_stringIcSt11char_traitsIcESaIcEEEPKcS9_i(i32 noundef -215, ptr noundef nonnull align 8 dereferenceable(32) %3, ptr noundef nonnull @__func__._ZN2cv3MatC2EiiiPvm, ptr noundef nonnull @.str.1, i32 noundef 610) #25
          to label %49 unwind label %54

49:                                               ; preds = %48
  unreachable

50:                                               ; preds = %45
  store ptr %39, ptr %34, align 8, !tbaa !57
  %51 = getelementptr inbounds nuw i8, ptr %1, i64 64
  %52 = load ptr, ptr %51, align 8, !tbaa !58
  store ptr %52, ptr %33, align 8, !tbaa !58
  store ptr %46, ptr %38, align 8, !tbaa !57
  store ptr %10, ptr %51, align 8, !tbaa !58
  br label %53

53:                                               ; preds = %50, %40
  store i32 1124007936, ptr %1, align 8, !tbaa !61
  tail call void @llvm.memset.p0.i64(ptr noundef nonnull align 4 dereferenceable(60) %7, i8 0, i64 60, i1 false)
  ret void

54:                                               ; preds = %48, %47
  %55 = landingpad { ptr, i32 }
          catch ptr null
  %56 = extractvalue { ptr, i32 } %55, 0
  call void @__clang_call_terminate(ptr %56) #27
  unreachable
}